; Function Attrs: mustprogress nounwind uwtable
define internal fastcc noundef zeroext i1 @_ZN12_GLOBAL__N_110MasmParser20parseDirectiveMSEmitEN4llvm5SMLocERNS_18ParseStatementInfoEm(ptr noundef nonnull align 8 dereferenceable(1144) %0, ptr %1, ptr noundef nonnull readonly align 8 captures(none) dereferenceable(136) %2, i64 noundef %3) unnamed_addr #0 align 2 {
  %5 = alloca %"class.llvm::SMLoc", align 8
  %6 = alloca %"class.llvm::SMLoc", align 8
  %7 = alloca i64, align 8
  %8 = alloca ptr, align 8
  %9 = alloca %"class.llvm::Twine", align 8
  %10 = alloca %"class.llvm::Twine", align 8
  %11 = alloca i32, align 4
  store ptr %1, ptr %6, align 8
  store i64 %3, ptr %7, align 8
  %12 = load ptr, ptr %0, align 8
  %13 = getelementptr inbounds nuw i8, ptr %12, i64 40
  %14 = load ptr, ptr %13, align 8
  %15 = tail call noundef nonnull align 8 dereferenceable(144) ptr %14(ptr noundef nonnull align 8 dereferenceable(1144) %0) #24
  %16 = tail call ptr @_ZNK4llvm10MCAsmLexer6getLocEv(ptr noundef nonnull align 8 dereferenceable(144) %15) #24
  call void @llvm.lifetime.start.p0(i64 8, ptr nonnull %5)
  store ptr null, ptr %5, align 8
  %17 = load ptr, ptr %0, align 8
  %18 = getelementptr inbounds nuw i8, ptr %17, i64 232
  %19 = load ptr, ptr %18, align 8
  %20 = call noundef zeroext i1 %19(ptr noundef nonnull align 8 dereferenceable(1144) %0, ptr noundef nonnull align 8 dereferenceable(8) %8, ptr noundef nonnull align 8 dereferenceable(8) %5) #24
  call void @llvm.lifetime.end.p0(i64 8, ptr nonnull %5)
  br i1 %20, label %40, label %21

21:                                               ; preds = %4
  %22 = load ptr, ptr %8, align 8
  %23 = load i8, ptr %22, align 8
  %.not = icmp eq i8 %23, 1
  br i1 %.not, label %28, label %24

24:                                               ; preds = %21
  %25 = getelementptr inbounds nuw i8, ptr %9, i64 32
  %26 = getelementptr inbounds nuw i8, ptr %9, i64 33
  store i8 1, ptr %26, align 1
  store ptr @.str.364, ptr %9, align 8
  store i8 3, ptr %25, align 8
  %27 = call noundef zeroext i1 @_ZN4llvm11MCAsmParser5ErrorENS_5SMLocERKNS_5TwineENS_7SMRangeE(ptr noundef nonnull align 8 dereferenceable(34) %0, ptr %16, ptr noundef nonnull align 8 dereferenceable(34) %9, ptr null, ptr null) #24
  br label %40

28:                                               ; preds = %21
  %29 = getelementptr inbounds nuw i8, ptr %22, i64 16
  %30 = load i64, ptr %29, align 8
  %31 = add i64 %30, 128
  %or.cond = icmp ult i64 %31, 384
  br i1 %or.cond, label %36, label %32

32:                                               ; preds = %28
  %33 = getelementptr inbounds nuw i8, ptr %10, i64 32
  %34 = getelementptr inbounds nuw i8, ptr %10, i64 33
  store i8 1, ptr %34, align 1
  store ptr @.str.365, ptr %10, align 8
  store i8 3, ptr %33, align 8
  %35 = call noundef zeroext i1 @_ZN4llvm11MCAsmParser5ErrorENS_5SMLocERKNS_5TwineENS_7SMRangeE(ptr noundef nonnull align 8 dereferenceable(34) %0, ptr %16, ptr noundef nonnull align 8 dereferenceable(34) %10, ptr null, ptr null) #24
  br label %40

36:                                               ; preds = %28
  %37 = getelementptr inbounds nuw i8, ptr %2, i64 128
  %38 = load ptr, ptr %37, align 8
  store i32 2, ptr %11, align 4
  %39 = call noundef nonnull align 8 dereferenceable(121) ptr @_ZN4llvm15SmallVectorImplINS_10AsmRewriteEE12emplace_backIJNS_14AsmRewriteKindERNS_5SMLocERmEEERS1_DpOT_(ptr noundef nonnull align 8 dereferenceable(16) %38, ptr noundef nonnull align 4 dereferenceable(4) %11, ptr noundef nonnull align 8 dereferenceable(8) %6, ptr noundef nonnull align 8 dereferenceable(8) %7)
  br label %40

40:                                               ; preds = %4, %36, %32, %24
  %.0 = phi i1 [ false, %36 ], [ %35, %32 ], [ %27, %24 ], [ true, %4 ]
  ret i1 %.0
}